target datalayout = "e-m:e-p270:32:32-p271:32:32-p272:64:64-i64:64-i128:128-f80:128-n8:16:32:64-S128"
target triple = "x86_64-unknown-linux-gnu"

%struct.QTailQLink = type { ptr, ptr }
%struct.qemu_plugin_state = type { %union.anon.0, [9 x %struct.anon], ptr, ptr, [1 x i64], %struct.QemuRecMutex, %struct.qht }
%union.anon.0 = type { %struct.QTailQLink }
%struct.anon = type { ptr }
%struct.QemuRecMutex = type { %struct.QemuMutex }
%struct.QemuMutex = type { %union.pthread_mutex_t, i8 }
%union.pthread_mutex_t = type { %struct.__pthread_mutex_s }
%struct.__pthread_mutex_s = type { i32, i32, i32, i32, i32, i16, i16, %struct.__pthread_internal_list }
%struct.__pthread_internal_list = type { ptr, ptr }
%struct.qht = type { ptr, ptr, %struct.QemuMutex, i32 }
%struct.qemu_plugin_desc = type { ptr, ptr, %union.anon.4, i32 }
%union.anon.4 = type { %struct.QTailQLink }
%struct.qemu_plugin_ctx = type { ptr, i64, [9 x ptr], %union.anon.5, ptr, i8, i8, i8 }
%union.anon.5 = type { %struct.QTailQLink }
%struct.qemu_plugin_reset_data = type { ptr, ptr, i8 }

@plugin = external global %struct.qemu_plugin_state, align 8
@.str.3 = private unnamed_addr constant [25 x i8] c"../qemu/plugins/loader.c\00", align 1
@qemu_rec_mutex_lock_func = external global ptr, align 8
@.str.22 = private unnamed_addr constant [8 x i8] c"success\00", align 1
@__func__.plugin_reset_destroy = private unnamed_addr constant [21 x i8] c"plugin_reset_destroy\00", align 1
@__func__.plugin_reset_destroy__locked = private unnamed_addr constant [29 x i8] c"plugin_reset_destroy__locked\00", align 1
@.str.26 = private unnamed_addr constant [15 x i8] c"ctx->resetting\00", align 1
@.str.27 = private unnamed_addr constant [18 x i8] c"ctx->uninstalling\00", align 1
@.str.28 = private unnamed_addr constant [112 x i8] c"Calling qemu_plugin_uninstall from the install function is a bug. Instead, return !0 from the install function.\00", align 1
@.str.29 = private unnamed_addr constant [7 x i8] c"%s: %s\00", align 1

; Function Attrs: nounwind sspstrong uwtable
define internal void @plugin_desc_free(ptr noundef %desc) #0 {
entry:
  %desc.addr = alloca ptr, align 8
  %i = alloca i32, align 4
  store ptr %desc, ptr %desc.addr, align 8
  store i32 0, ptr %i, align 4
  br label %for.cond

for.cond:                                         ; preds = %for.inc, %entry
  %0 = load i32, ptr %i, align 4
  %1 = load ptr, ptr %desc.addr, align 8
  %argc = getelementptr inbounds %struct.qemu_plugin_desc, ptr %1, i32 0, i32 3
  %2 = load i32, ptr %argc, align 8
  %cmp = icmp slt i32 %0, %2
  br i1 %cmp, label %for.body, label %for.end

for.body:                                         ; preds = %for.cond
  %3 = load ptr, ptr %desc.addr, align 8
  %argv = getelementptr inbounds %struct.qemu_plugin_desc, ptr %3, i32 0, i32 1
  %4 = load ptr, ptr %argv, align 8
  %5 = load i32, ptr %i, align 4
  %idxprom = sext i32 %5 to i64
  %arrayidx = getelementptr ptr, ptr %4, i64 %idxprom
  %6 = load ptr, ptr %arrayidx, align 8
  call void @g_free(ptr noundef %6)
  br label %for.inc

for.inc:                                          ; preds = %for.body
  %7 = load i32, ptr %i, align 4
  %inc = add i32 %7, 1
  store i32 %inc, ptr %i, align 4
  br label %for.cond, !llvm.loop !10

for.end:                                          ; preds = %for.cond
  %8 = load ptr, ptr %desc.addr, align 8
  %argv1 = getelementptr inbounds %struct.qemu_plugin_desc, ptr %8, i32 0, i32 1
  %9 = load ptr, ptr %argv1, align 8
  call void @g_free(ptr noundef %9)
  %10 = load ptr, ptr %desc.addr, align 8
  %path = getelementptr inbounds %struct.qemu_plugin_desc, ptr %10, i32 0, i32 0
  %11 = load ptr, ptr %path, align 8
  call void @g_free(ptr noundef %11)
  %12 = load ptr, ptr %desc.addr, align 8
  call void @g_free(ptr noundef %12)
  ret void
}

; Function Attrs: nounwind sspstrong uwtable
define internal void @plugin_reset_destroy__locked(ptr noundef %data) #0 {
entry:
  %data.addr = alloca ptr, align 8
  %ctx = alloca ptr, align 8
  %ev = alloca i32, align 4
  %success = alloca i8, align 1
  store ptr %data, ptr %data.addr, align 8
  %0 = load ptr, ptr %data.addr, align 8
  %ctx1 = getelementptr inbounds %struct.qemu_plugin_reset_data, ptr %0, i32 0, i32 0
  %1 = load ptr, ptr %ctx1, align 8
  store ptr %1, ptr %ctx, align 8
  store i32 0, ptr %ev, align 4
  br label %for.cond

for.cond:                                         ; preds = %for.inc, %entry
  %2 = load i32, ptr %ev, align 4
  %cmp = icmp ult i32 %2, 9
  br i1 %cmp, label %for.body, label %for.end

for.body:                                         ; preds = %for.cond
  %3 = load ptr, ptr %ctx, align 8
  %4 = load i32, ptr %ev, align 4
  call void @plugin_unregister_cb__locked(ptr noundef %3, i32 noundef %4)
  br label %for.inc

for.inc:                                          ; preds = %for.body
  %5 = load i32, ptr %ev, align 4
  %inc = add i32 %5, 1
  store i32 %inc, ptr %ev, align 4
  br label %for.cond, !llvm.loop !9

for.end:                                          ; preds = %for.cond
  %6 = load ptr, ptr %data.addr, align 8
  %reset = getelementptr inbounds %struct.qemu_plugin_reset_data, ptr %6, i32 0, i32 2
  %7 = load i8, ptr %reset, align 8
  %tobool = trunc i8 %7 to i1
  br i1 %tobool, label %if.then, label %if.end9

if.then:                                          ; preds = %for.end
  br label %do.body

do.body:                                          ; preds = %if.then
  %8 = load ptr, ptr %ctx, align 8
  %resetting = getelementptr inbounds %struct.qemu_plugin_ctx, ptr %8, i32 0, i32 7
  %9 = load i8, ptr %resetting, align 2
  %tobool2 = trunc i8 %9 to i1
  br i1 %tobool2, label %if.then3, label %if.else

if.then3:                                         ; preds = %do.body
  br label %if.end

if.else:                                          ; preds = %do.body
  call void @g_assertion_message_expr(ptr noundef null, ptr noundef @.str.3, i32 noundef 342, ptr noundef @__func__.plugin_reset_destroy__locked, ptr noundef @.str.26) #8
  unreachable

if.end:                                           ; preds = %if.then3
  br label %do.end

do.end:                                           ; preds = %if.end
  %10 = load ptr, ptr %data.addr, align 8
  %cb = getelementptr inbounds %struct.qemu_plugin_reset_data, ptr %10, i32 0, i32 1
  %11 = load ptr, ptr %cb, align 8
  %tobool4 = icmp ne ptr %11, null
  br i1 %tobool4, label %if.then5, label %if.end7

if.then5:                                         ; preds = %do.end
  %12 = load ptr, ptr %data.addr, align 8
  %cb6 = getelementptr inbounds %struct.qemu_plugin_reset_data, ptr %12, i32 0, i32 1
  %13 = load ptr, ptr %cb6, align 8
  %14 = load ptr, ptr %ctx, align 8
  %id = getelementptr inbounds %struct.qemu_plugin_ctx, ptr %14, i32 0, i32 1
  %15 = load i64, ptr %id, align 8
  call void %13(i64 noundef %15)
  br label %if.end7

if.end7:                                          ; preds = %if.then5, %do.end
  %16 = load ptr, ptr %ctx, align 8
  %resetting8 = getelementptr inbounds %struct.qemu_plugin_ctx, ptr %16, i32 0, i32 7
  store i8 0, ptr %resetting8, align 2
  %17 = load ptr, ptr %data.addr, align 8
  call void @g_free(ptr noundef %17)
  br label %return

if.end9:                                          ; preds = %for.end
  br label %do.body10

do.body10:                                        ; preds = %if.end9
  %18 = load ptr, ptr %ctx, align 8
  %uninstalling = getelementptr inbounds %struct.qemu_plugin_ctx, ptr %18, i32 0, i32 6
  %19 = load i8, ptr %uninstalling, align 1
  %tobool11 = trunc i8 %19 to i1
  br i1 %tobool11, label %if.then12, label %if.else13

if.then12:                                        ; preds = %do.body10
  br label %if.end14

if.else13:                                        ; preds = %do.body10
  call void @g_assertion_message_expr(ptr noundef null, ptr noundef @.str.3, i32 noundef 351, ptr noundef @__func__.plugin_reset_destroy__locked, ptr noundef @.str.27) #8
  unreachable

if.end14:                                         ; preds = %if.then12
  br label %do.end15

do.end15:                                         ; preds = %if.end14
  %20 = load ptr, ptr %ctx, align 8
  %installing = getelementptr inbounds %struct.qemu_plugin_ctx, ptr %20, i32 0, i32 5
  %21 = load i8, ptr %installing, align 8
  %tobool16 = trunc i8 %21 to i1
  br i1 %tobool16, label %if.then17, label %if.end18

if.then17:                                        ; preds = %do.end15
  call void (ptr, ...) @error_report(ptr noundef @.str.28)
  call void @abort() #9
  unreachable

if.end18:                                         ; preds = %do.end15
  %22 = getelementptr inbounds %struct.qemu_plugin_state, ptr @plugin, i32 0, i32 2
  %23 = load ptr, ptr %22, align 8
  %24 = load ptr, ptr %ctx, align 8
  %id19 = getelementptr inbounds %struct.qemu_plugin_ctx, ptr %24, i32 0, i32 1
  %call = call i32 @g_hash_table_remove(ptr noundef %23, ptr noundef %id19)
  %tobool20 = icmp ne i32 %call, 0
  %frombool = zext i1 %tobool20 to i8
  store i8 %frombool, ptr %success, align 1
  br label %do.body21

do.body21:                                        ; preds = %if.end18
  %25 = load i8, ptr %success, align 1
  %tobool22 = trunc i8 %25 to i1
  br i1 %tobool22, label %if.then23, label %if.else24

if.then23:                                        ; preds = %do.body21
  br label %if.end25

if.else24:                                        ; preds = %do.body21
  call void @g_assertion_message_expr(ptr noundef null, ptr noundef @.str.3, i32 noundef 360, ptr noundef @__func__.plugin_reset_destroy__locked, ptr noundef @.str.22) #8
  unreachable

if.end25:                                         ; preds = %if.then23
  br label %do.end26

do.end26:                                         ; preds = %if.end25
  br label %do.body27

do.body27:                                        ; preds = %do.end26
  %26 = load ptr, ptr %ctx, align 8
  %entry28 = getelementptr inbounds %struct.qemu_plugin_ctx, ptr %26, i32 0, i32 3
  %27 = load ptr, ptr %entry28, align 8
  %cmp29 = icmp ne ptr %27, null
  br i1 %cmp29, label %if.then30, label %if.else35

if.then30:                                        ; preds = %do.body27
  %28 = load ptr, ptr %ctx, align 8
  %entry31 = getelementptr inbounds %struct.qemu_plugin_ctx, ptr %28, i32 0, i32 3
  %tql_prev = getelementptr inbounds %struct.QTailQLink, ptr %entry31, i32 0, i32 1
  %29 = load ptr, ptr %tql_prev, align 8
  %30 = load ptr, ptr %ctx, align 8
  %entry32 = getelementptr inbounds %struct.qemu_plugin_ctx, ptr %30, i32 0, i32 3
  %31 = load ptr, ptr %entry32, align 8
  %entry33 = getelementptr inbounds %struct.qemu_plugin_ctx, ptr %31, i32 0, i32 3
  %tql_prev34 = getelementptr inbounds %struct.QTailQLink, ptr %entry33, i32 0, i32 1
  store ptr %29, ptr %tql_prev34, align 8
  br label %if.end38

if.else35:                                        ; preds = %do.body27
  %32 = load ptr, ptr %ctx, align 8
  %entry36 = getelementptr inbounds %struct.qemu_plugin_ctx, ptr %32, i32 0, i32 3
  %tql_prev37 = getelementptr inbounds %struct.QTailQLink, ptr %entry36, i32 0, i32 1
  %33 = load ptr, ptr %tql_prev37, align 8
  %34 = getelementptr inbounds %struct.QTailQLink, ptr @plugin, i32 0, i32 1
  store ptr %33, ptr %34, align 8
  br label %if.end38

if.end38:                                         ; preds = %if.else35, %if.then30
  %35 = load ptr, ptr %ctx, align 8
  %entry39 = getelementptr inbounds %struct.qemu_plugin_ctx, ptr %35, i32 0, i32 3
  %36 = load ptr, ptr %entry39, align 8
  %37 = load ptr, ptr %ctx, align 8
  %entry40 = getelementptr inbounds %struct.qemu_plugin_ctx, ptr %37, i32 0, i32 3
  %tql_prev41 = getelementptr inbounds %struct.QTailQLink, ptr %entry40, i32 0, i32 1
  %38 = load ptr, ptr %tql_prev41, align 8
  %tql_next = getelementptr inbounds %struct.QTailQLink, ptr %38, i32 0, i32 0
  store ptr %36, ptr %tql_next, align 8
  %39 = load ptr, ptr %ctx, align 8
  %entry42 = getelementptr inbounds %struct.qemu_plugin_ctx, ptr %39, i32 0, i32 3
  %tql_prev43 = getelementptr inbounds %struct.QTailQLink, ptr %entry42, i32 0, i32 1
  store ptr null, ptr %tql_prev43, align 8
  %40 = load ptr, ptr %ctx, align 8
  %entry44 = getelementptr inbounds %struct.qemu_plugin_ctx, ptr %40, i32 0, i32 3
  %tql_next45 = getelementptr inbounds %struct.QTailQLink, ptr %entry44, i32 0, i32 0
  store ptr null, ptr %tql_next45, align 8
  %41 = load ptr, ptr %ctx, align 8
  %entry46 = getelementptr inbounds %struct.qemu_plugin_ctx, ptr %41, i32 0, i32 3
  store ptr null, ptr %entry46, align 8
  br label %do.end47

do.end47:                                         ; preds = %if.end38
  %42 = load ptr, ptr %data.addr, align 8
  %cb48 = getelementptr inbounds %struct.qemu_plugin_reset_data, ptr %42, i32 0, i32 1
  %43 = load ptr, ptr %cb48, align 8
  %tobool49 = icmp ne ptr %43, null
  br i1 %tobool49, label %if.then50, label %if.end53

if.then50:                                        ; preds = %do.end47
  %44 = load ptr, ptr %data.addr, align 8
  %cb51 = getelementptr inbounds %struct.qemu_plugin_reset_data, ptr %44, i32 0, i32 1
  %45 = load ptr, ptr %cb51, align 8
  %46 = load ptr, ptr %ctx, align 8
  %id52 = getelementptr inbounds %struct.qemu_plugin_ctx, ptr %46, i32 0, i32 1
  %47 = load i64, ptr %id52, align 8
  call void %45(i64 noundef %47)
  br label %if.end53

if.end53:                                         ; preds = %if.then50, %do.end47
  %48 = load ptr, ptr %ctx, align 8
  %handle = getelementptr inbounds %struct.qemu_plugin_ctx, ptr %48, i32 0, i32 0
  %49 = load ptr, ptr %handle, align 8
  %call54 = call i32 @g_module_close(ptr noundef %49)
  %tobool55 = icmp ne i32 %call54, 0
  br i1 %tobool55, label %if.end58, label %if.then56

if.then56:                                        ; preds = %if.end53
  %call57 = call ptr @g_module_error()
  call void (ptr, ...) @warn_report(ptr noundef @.str.29, ptr noundef @__func__.plugin_reset_destroy__locked, ptr noundef %call57)
  br label %if.end58

if.end58:                                         ; preds = %if.then56, %if.end53
  %50 = load ptr, ptr %ctx, align 8
  %desc = getelementptr inbounds %struct.qemu_plugin_ctx, ptr %50, i32 0, i32 4
  %51 = load ptr, ptr %desc, align 8
  call void @plugin_desc_free(ptr noundef %51)
  %52 = load ptr, ptr %ctx, align 8
  call void @qemu_vfree(ptr noundef %52)
  %53 = load ptr, ptr %data.addr, align 8
  call void @g_free(ptr noundef %53)
  br label %return

return:                                           ; preds = %if.end58, %if.end7
  ret void
}

; Function Attrs: nounwind sspstrong uwtable
define internal void @plugin_reset_destroy(ptr noundef %data) #0 {
entry:
  %data.addr = alloca ptr, align 8
  %_f = alloca ptr, align 8
  %tmp = alloca ptr, align 8
  %atomic-temp = alloca ptr, align 8
  %_f1 = alloca ptr, align 8
  %tmp7 = alloca ptr, align 8
  %atomic-temp8 = alloca ptr, align 8
  store ptr %data, ptr %data.addr, align 8
  br label %while.cond

while.cond:                                       ; preds = %do.end, %entry
  br i1 false, label %while.body, label %while.end

while.body:                                       ; preds = %while.cond
  br label %do.body

do.body:                                          ; preds = %while.body
  call void @g_assertion_message_expr(ptr noundef null, ptr noundef @.str.3, i32 noundef 375, ptr noundef @__func__.plugin_reset_destroy, ptr noundef null) #8
  unreachable

do.end:                                           ; No predecessors!
  br label %while.cond

while.end:                                        ; preds = %while.cond
  %0 = load atomic i64, ptr @qemu_rec_mutex_lock_func monotonic, align 8
  store i64 %0, ptr %atomic-temp, align 8
  %1 = load ptr, ptr %atomic-temp, align 8
  store ptr %1, ptr %tmp, align 8
  %2 = load ptr, ptr %tmp, align 8
  store ptr %2, ptr %_f, align 8
  %3 = load ptr, ptr %_f, align 8
  %4 = getelementptr inbounds %struct.qemu_plugin_state, ptr @plugin, i32 0, i32 5
  call void %3(ptr noundef %4, ptr noundef @.str.3, i32 noundef 375)
  %5 = load ptr, ptr %data.addr, align 8
  call void @plugin_reset_destroy__locked(ptr noundef %5)
  br label %while.cond2

while.cond2:                                      ; preds = %do.end5, %while.end
  br i1 false, label %while.body3, label %while.end6

while.body3:                                      ; preds = %while.cond2
  br label %do.body4

do.body4:                                         ; preds = %while.body3
  call void @g_assertion_message_expr(ptr noundef null, ptr noundef @.str.3, i32 noundef 377, ptr noundef @__func__.plugin_reset_destroy, ptr noundef null) #8
  unreachable

do.end5:                                          ; No predecessors!
  br label %while.cond2

while.end6:                                       ; preds = %while.cond2
  %6 = load atomic i64, ptr @qemu_rec_mutex_lock_func monotonic, align 8
  store i64 %6, ptr %atomic-temp8, align 8
  %7 = load ptr, ptr %atomic-temp8, align 8
  store ptr %7, ptr %tmp7, align 8
  %8 = load ptr, ptr %tmp7, align 8
  store ptr %8, ptr %_f1, align 8
  %9 = load ptr, ptr %_f1, align 8
  %10 = getelementptr inbounds %struct.qemu_plugin_state, ptr @plugin, i32 0, i32 5
  call void %9(ptr noundef %10, ptr noundef @.str.3, i32 noundef 377)
  ret void
}