; Function Attrs: nounwind sspstrong uwtable
define internal fastcc void @plugin_reset_destroy(ptr noundef %data) unnamed_addr #0 {
entry:
  %0 = load atomic i64, ptr @qemu_rec_mutex_lock_func monotonic, align 8
  %1 = inttoptr i64 %0 to ptr
  tail call void %1(ptr noundef nonnull getelementptr inbounds nuw (i8, ptr @plugin, i64 112), ptr noundef nonnull @.str.3, i32 noundef 375) #11
  %2 = load ptr, ptr %data, align 8
  br label %for.body.i

for.body.i:                                       ; preds = %for.body.i, %entry
  %ev.031.i = phi i32 [ 0, %entry ], [ %inc.i, %for.body.i ]
  tail call void @plugin_unregister_cb__locked(ptr noundef %2, i32 noundef %ev.031.i) #11
  %inc.i = add nuw nsw i32 %ev.031.i, 1
  %exitcond.not.i = icmp eq i32 %inc.i, 9
  br i1 %exitcond.not.i, label %for.end.i, label %for.body.i, !llvm.loop !8

for.end.i:                                        ; preds = %for.body.i
  %reset.i = getelementptr inbounds nuw i8, ptr %data, i64 16
  %3 = load i8, ptr %reset.i, align 8
  %tobool.i = trunc i8 %3 to i1
  br i1 %tobool.i, label %do.body.i, label %do.body10.i

do.body.i:                                        ; preds = %for.end.i
  %resetting.i = getelementptr inbounds nuw i8, ptr %2, i64 114
  %4 = load i8, ptr %resetting.i, align 2
  %tobool2.i = trunc i8 %4 to i1
  br i1 %tobool2.i, label %do.end.i, label %if.else.i

if.else.i:                                        ; preds = %do.body.i
  tail call void @g_assertion_message_expr(ptr noundef null, ptr noundef nonnull @.str.3, i32 noundef 342, ptr noundef nonnull @__func__.plugin_reset_destroy__locked, ptr noundef nonnull @.str.26) #12
  unreachable

do.end.i:                                         ; preds = %do.body.i
  %cb.i = getelementptr inbounds nuw i8, ptr %data, i64 8
  %5 = load ptr, ptr %cb.i, align 8
  %tobool4.not.i = icmp eq ptr %5, null
  br i1 %tobool4.not.i, label %if.end7.i, label %if.then5.i

if.then5.i:                                       ; preds = %do.end.i
  %id.i = getelementptr inbounds nuw i8, ptr %2, i64 8
  %6 = load i64, ptr %id.i, align 8
  tail call void %5(i64 noundef %6) #11
  br label %if.end7.i

if.end7.i:                                        ; preds = %if.then5.i, %do.end.i
  store i8 0, ptr %resetting.i, align 2
  br label %plugin_reset_destroy__locked.exit

do.body10.i:                                      ; preds = %for.end.i
  %uninstalling.i = getelementptr inbounds nuw i8, ptr %2, i64 113
  %7 = load i8, ptr %uninstalling.i, align 1
  %tobool11.i = trunc i8 %7 to i1
  br i1 %tobool11.i, label %do.end15.i, label %if.else13.i

if.else13.i:                                      ; preds = %do.body10.i
  tail call void @g_assertion_message_expr(ptr noundef null, ptr noundef nonnull @.str.3, i32 noundef 351, ptr noundef nonnull @__func__.plugin_reset_destroy__locked, ptr noundef nonnull @.str.27) #12
  unreachable

do.end15.i:                                       ; preds = %do.body10.i
  %installing.i = getelementptr inbounds nuw i8, ptr %2, i64 112
  %8 = load i8, ptr %installing.i, align 8
  %tobool16.i = trunc i8 %8 to i1
  br i1 %tobool16.i, label %if.then17.i, label %if.end18.i

if.then17.i:                                      ; preds = %do.end15.i
  tail call void (ptr, ...) @error_report(ptr noundef nonnull @.str.28) #11
  tail call void @abort() #12
  unreachable

if.end18.i:                                       ; preds = %do.end15.i
  %9 = load ptr, ptr getelementptr inbounds nuw (i8, ptr @plugin, i64 88), align 8
  %id19.i = getelementptr inbounds nuw i8, ptr %2, i64 8
  %call.i = tail call i32 @g_hash_table_remove(ptr noundef %9, ptr noundef nonnull %id19.i) #11
  %tobool20.not.i = icmp eq i32 %call.i, 0
  br i1 %tobool20.not.i, label %if.else24.i, label %do.body27.i

if.else24.i:                                      ; preds = %if.end18.i
  tail call void @g_assertion_message_expr(ptr noundef null, ptr noundef nonnull @.str.3, i32 noundef 360, ptr noundef nonnull @__func__.plugin_reset_destroy__locked, ptr noundef nonnull @.str.22) #12
  unreachable

do.body27.i:                                      ; preds = %if.end18.i
  %entry28.i = getelementptr inbounds nuw i8, ptr %2, i64 88
  %10 = load ptr, ptr %entry28.i, align 8
  %cmp29.not.i = icmp eq ptr %10, null
  %tql_prev37.i = getelementptr inbounds nuw i8, ptr %2, i64 96
  %11 = load ptr, ptr %tql_prev37.i, align 8
  br i1 %cmp29.not.i, label %if.else35.i, label %if.then30.i

if.then30.i:                                      ; preds = %do.body27.i
  %tql_prev34.i = getelementptr inbounds nuw i8, ptr %10, i64 96
  store ptr %11, ptr %tql_prev34.i, align 8
  %.pre.i = load ptr, ptr %entry28.i, align 8
  br label %if.end38.i

if.else35.i:                                      ; preds = %do.body27.i
  store ptr %11, ptr getelementptr inbounds nuw (i8, ptr @plugin, i64 8), align 8
  br label %if.end38.i

if.end38.i:                                       ; preds = %if.else35.i, %if.then30.i
  %12 = phi ptr [ null, %if.else35.i ], [ %.pre.i, %if.then30.i ]
  store ptr %12, ptr %11, align 8
  %cb48.i = getelementptr inbounds nuw i8, ptr %data, i64 8
  tail call void @llvm.memset.p0.i64(ptr noundef nonnull align 8 dereferenceable(16) %entry28.i, i8 0, i64 16, i1 false)
  %13 = load ptr, ptr %cb48.i, align 8
  %tobool49.not.i = icmp eq ptr %13, null
  br i1 %tobool49.not.i, label %if.end53.i, label %if.then50.i

if.then50.i:                                      ; preds = %if.end38.i
  %14 = load i64, ptr %id19.i, align 8
  tail call void %13(i64 noundef %14) #11
  br label %if.end53.i

if.end53.i:                                       ; preds = %if.then50.i, %if.end38.i
  %15 = load ptr, ptr %2, align 8
  %call54.i = tail call i32 @g_module_close(ptr noundef %15) #11
  %tobool55.not.i = icmp eq i32 %call54.i, 0
  br i1 %tobool55.not.i, label %if.then56.i, label %if.end58.i

if.then56.i:                                      ; preds = %if.end53.i
  %call57.i = tail call ptr @g_module_error() #11
  tail call void (ptr, ...) @warn_report(ptr noundef nonnull @.str.29, ptr noundef nonnull @__func__.plugin_reset_destroy__locked, ptr noundef %call57.i) #11
  br label %if.end58.i

if.end58.i:                                       ; preds = %if.then56.i, %if.end53.i
  %desc.i = getelementptr inbounds nuw i8, ptr %2, i64 104
  %16 = load ptr, ptr %desc.i, align 8
  %argc.i.i = getelementptr inbounds nuw i8, ptr %16, i64 32
  %17 = load i32, ptr %argc.i.i, align 8
  %cmp7.i.i = icmp sgt i32 %17, 0
  br i1 %cmp7.i.i, label %for.body.lr.ph.i.i, label %plugin_desc_free.exit.i

for.body.lr.ph.i.i:                               ; preds = %if.end58.i
  %argv.i.i = getelementptr inbounds nuw i8, ptr %16, i64 8
  br label %for.body.i.i

for.body.i.i:                                     ; preds = %for.body.i.i, %for.body.lr.ph.i.i
  %indvars.iv.i.i = phi i64 [ 0, %for.body.lr.ph.i.i ], [ %indvars.iv.next.i.i, %for.body.i.i ]
  %18 = load ptr, ptr %argv.i.i, align 8
  %arrayidx.i.i = getelementptr ptr, ptr %18, i64 %indvars.iv.i.i
  %19 = load ptr, ptr %arrayidx.i.i, align 8
  tail call void @g_free(ptr noundef %19) #11
  %indvars.iv.next.i.i = add nuw nsw i64 %indvars.iv.i.i, 1
  %20 = load i32, ptr %argc.i.i, align 8
  %21 = sext i32 %20 to i64
  %cmp.i.i = icmp slt i64 %indvars.iv.next.i.i, %21
  br i1 %cmp.i.i, label %for.body.i.i, label %plugin_desc_free.exit.i, !llvm.loop !9

plugin_desc_free.exit.i:                          ; preds = %for.body.i.i, %if.end58.i
  %argv1.i.i = getelementptr inbounds nuw i8, ptr %16, i64 8
  %22 = load ptr, ptr %argv1.i.i, align 8
  tail call void @g_free(ptr noundef %22) #11
  %23 = load ptr, ptr %16, align 8
  tail call void @g_free(ptr noundef %23) #11
  tail call void @g_free(ptr noundef nonnull %16) #11
  tail call void @qemu_vfree(ptr noundef nonnull %2) #11
  br label %plugin_reset_destroy__locked.exit

plugin_reset_destroy__locked.exit:                ; preds = %if.end7.i, %plugin_desc_free.exit.i
  tail call void @g_free(ptr noundef nonnull %data) #11
  %24 = load atomic i64, ptr @qemu_rec_mutex_lock_func monotonic, align 8
  %25 = inttoptr i64 %24 to ptr
  tail call void %25(ptr noundef nonnull getelementptr inbounds nuw (i8, ptr @plugin, i64 112), ptr noundef nonnull @.str.3, i32 noundef 377) #11
  ret void
}